target datalayout = "e-m:e-p270:32:32-p271:32:32-p272:64:64-i64:64-i128:128-f80:128-n8:16:32:64-S128"
target triple = "x86_64-pc-linux-gnu"

%struct.dlist_node = type { ptr, ptr }
%struct.ResourceOwnerDesc = type { ptr, i32, i32, ptr, ptr }
%struct.dsm_segment = type { %struct.dlist_node, ptr, i32, i32, ptr, ptr, i64, %struct.slist_head }
%struct.slist_head = type { %struct.slist_node }
%struct.slist_node = type { ptr }

@CurrentResourceOwner = external global ptr, align 8
@dsm_resowner_desc = internal constant %struct.ResourceOwnerDesc { ptr @.str.18, i32 1, i32 400, ptr @ResOwnerReleaseDSM, ptr @ResOwnerPrintDSM }, align 8

; Function Attrs: inlinehint nounwind uwtable
define internal i64 @PointerGetDatum(ptr noundef %0) #4 {
  %2 = alloca ptr, align 8
  store ptr %0, ptr %2, align 8
  %3 = load ptr, ptr %2, align 8
  %4 = ptrtoint ptr %3 to i64
  ret i64 %4
}

; Function Attrs: inlinehint nounwind uwtable
define internal void @ResourceOwnerRememberDSM(ptr noundef %0, ptr noundef %1) #4 {
  %3 = alloca ptr, align 8
  %4 = alloca ptr, align 8
  store ptr %0, ptr %3, align 8
  store ptr %1, ptr %4, align 8
  %5 = load ptr, ptr %3, align 8
  %6 = load ptr, ptr %4, align 8
  %7 = call i64 @PointerGetDatum(ptr noundef %6)
  call void @ResourceOwnerRemember(ptr noundef %5, i64 noundef %7, ptr noundef @dsm_resowner_desc)
  ret void
}

; Function Attrs: nounwind uwtable
define dso_local void @dsm_unpin_mapping(ptr noundef %0) #0 {
  %2 = alloca ptr, align 8
  store ptr %0, ptr %2, align 8
  %3 = load ptr, ptr @CurrentResourceOwner, align 8
  call void @ResourceOwnerEnlarge(ptr noundef %3)
  %4 = load ptr, ptr @CurrentResourceOwner, align 8
  %5 = load ptr, ptr %2, align 8
  %6 = getelementptr inbounds nuw %struct.dsm_segment, ptr %5, i32 0, i32 1
  store ptr %4, ptr %6, align 8
  %7 = load ptr, ptr %2, align 8
  %8 = getelementptr inbounds nuw %struct.dsm_segment, ptr %7, i32 0, i32 1
  %9 = load ptr, ptr %8, align 8
  %10 = load ptr, ptr %2, align 8
  call void @ResourceOwnerRememberDSM(ptr noundef %9, ptr noundef %10)
  ret void
}