; Function Attrs: nounwind uwtable
define dso_local void @dsm_unpin_mapping(ptr noundef initializes((16, 24)) %0) local_unnamed_addr #0 {
  %2 = load ptr, ptr @CurrentResourceOwner, align 8
  tail call void @ResourceOwnerEnlarge(ptr noundef %2) #12
  %3 = load ptr, ptr @CurrentResourceOwner, align 8
  %4 = getelementptr inbounds nuw i8, ptr %0, i64 16
  store ptr %3, ptr %4, align 8
  %5 = ptrtoint ptr %0 to i64
  tail call void @ResourceOwnerRemember(ptr noundef %3, i64 noundef %5, ptr noundef nonnull @dsm_resowner_desc) #12
  ret void
}